; Function Attrs: mustprogress uwtable
define i64 @_ZN8proxygen15HTTPTransaction30stopReadingWebTransportIngressEmj(ptr noundef nonnull align 8 dereferenceable(912) %this, i64 noundef %id, i32 noundef %errorCode) local_unnamed_addr #3 align 2 {
entry:
  %id.addr = alloca i64, align 8
  store i64 %id, ptr %id.addr, align 8
  %transport_ = getelementptr inbounds i8, ptr %this, i64 272
  %0 = load ptr, ptr %transport_, align 8
  %vtable = load ptr, ptr %0, align 8
  %vfn = getelementptr inbounds i8, ptr %vtable, i64 424
  %1 = load ptr, ptr %vfn, align 8
  %call = tail call i64 %1(ptr noundef nonnull align 8 dereferenceable(8) %0, i64 noundef %id, i32 noundef %errorCode)
  %wtIngressStreams_ = getelementptr inbounds i8, ptr %this, i64 848
  %call.i = call noundef i64 @_ZNSt8_Rb_treeImSt4pairIKmN8proxygen15HTTPTransaction19TxnStreamReadHandleEESt10_Select1stIS5_ESt4lessImESaIS5_EE5eraseERS1_(ptr noundef nonnull align 8 dereferenceable(48) %wtIngressStreams_, ptr noundef nonnull align 8 dereferenceable(8) %id.addr)
  ret i64 %call
}